target datalayout = "e-m:e-p270:32:32-p271:32:32-p272:64:64-i64:64-i128:128-f80:128-n8:16:32:64-S128"
target triple = "x86_64-pc-linux-gnu"

@_ZN7VM_Exit10_vm_exitedE = external global i8, align 1
@_ZN12StubRoutines21_data_cache_writebackE = external global ptr, align 8

; Function Attrs: mustprogress nounwind uwtable
define internal noundef ptr @_ZL14addr_from_javal(i64 noundef %0) #1 {
  %2 = alloca i64, align 8
  store i64 %0, ptr %2, align 8
  %3 = load i64, ptr %2, align 8
  %4 = inttoptr i64 %3 to ptr
  ret ptr %4
}

; Function Attrs: mustprogress nounwind uwtable
define linkonce_odr hidden noundef ptr @_ZN12StubRoutines23DataCacheWriteback_stubEv() #1 comdat align 2 {
  %1 = load ptr, ptr @_ZN12StubRoutines21_data_cache_writebackE, align 8
  ret ptr %1
}

; Function Attrs: mustprogress nounwind uwtable
define linkonce_odr hidden void @_ZN2os22verify_stack_alignmentEv() #1 comdat align 2 {
  ret void
}

; Function Attrs: mustprogress nounwind uwtable
define linkonce_odr hidden void @_ZN7VM_Exit18block_if_vm_exitedEv() #1 comdat align 2 {
  %1 = load volatile i8, ptr @_ZN7VM_Exit10_vm_exitedE, align 1
  %2 = trunc i8 %1 to i1
  br i1 %2, label %3, label %4

3:                                                ; preds = %0
  call void @_ZN7VM_Exit17wait_if_vm_exitedEv()
  br label %4

4:                                                ; preds = %3, %0
  ret void
}

; Function Attrs: mustprogress nounwind uwtable
define internal void @_ZL17Unsafe_WriteBack0P7JNIEnv_P8_jobjectl(ptr noundef %0, ptr noundef %1, i64 noundef %2) #1 {
  %4 = alloca ptr, align 8
  %5 = alloca ptr, align 8
  %6 = alloca i64, align 8
  store ptr %0, ptr %4, align 8
  store ptr %1, ptr %5, align 8
  store i64 %2, ptr %6, align 8
  call void @_ZN7VM_Exit18block_if_vm_exitedEv()
  call void @_ZN2os22verify_stack_alignmentEv()
  %7 = call noundef ptr @_ZN12StubRoutines23DataCacheWriteback_stubEv()
  %8 = load i64, ptr %6, align 8
  %9 = call noundef ptr @_ZL14addr_from_javal(i64 noundef %8)
  call void %7(ptr noundef %9)
  ret void
}