; Function Attrs: mustprogress nounwind uwtable
define internal void @_ZL17Unsafe_WriteBack0P7JNIEnv_P8_jobjectl(ptr nocapture readnone %0, ptr nocapture readnone %1, i64 noundef %2) #1 {
  %4 = load volatile i8, ptr @_ZN7VM_Exit10_vm_exitedE, align 1
  %5 = trunc i8 %4 to i1
  br i1 %5, label %6, label %_ZN7VM_Exit18block_if_vm_exitedEv.exit

6:                                                ; preds = %3
  tail call void @_ZN7VM_Exit17wait_if_vm_exitedEv() #12
  br label %_ZN7VM_Exit18block_if_vm_exitedEv.exit

_ZN7VM_Exit18block_if_vm_exitedEv.exit:           ; preds = %3, %6
  %7 = load ptr, ptr @_ZN12StubRoutines21_data_cache_writebackE, align 8
  %8 = inttoptr i64 %2 to ptr
  tail call void %7(ptr noundef %8) #12
  ret void
}